target datalayout = "e-m:e-p270:32:32-p271:32:32-p272:64:64-i64:64-i128:128-f80:128-n8:16:32:64-S128"
target triple = "x86_64-pc-linux-gnu"

@hf_fmp_sessionHandle = internal global i32 0, align 4
@hf_fmp_numBlksReq = internal global i32 0, align 4
@hf_fmp_msgNum = internal global i32 0, align 4
@hf_fmp_firstLogBlk = internal global i32 0, align 4
@hf_fmp_fmpFHandle = internal global i32 0, align 4

; Function Attrs: null_pointer_is_valid sspstrong uwtable
define internal i32 @dissect_FMP_NOTIFY_DownGrade_request(ptr noundef %0, ptr noundef %1, ptr noundef %2, ptr noundef %3) #0 {
  %5 = alloca ptr, align 8
  %6 = alloca ptr, align 8
  %7 = alloca ptr, align 8
  %8 = alloca ptr, align 8
  %9 = alloca i32, align 4
  store ptr %0, ptr %5, align 8
  store ptr %1, ptr %6, align 8
  store ptr %2, ptr %7, align 8
  store ptr %3, ptr %8, align 8
  call void @llvm.lifetime.start.p0(i64 4, ptr %9) #3
  store i32 0, ptr %9, align 4
  %10 = load ptr, ptr %5, align 8
  %11 = load ptr, ptr %7, align 8
  %12 = load i32, ptr @hf_fmp_sessionHandle, align 4
  %13 = load i32, ptr %9, align 4
  %14 = call i32 @dissect_rpc_data(ptr noundef %10, ptr noundef %11, i32 noundef %12, i32 noundef %13)
  store i32 %14, ptr %9, align 4
  %15 = load ptr, ptr %5, align 8
  %16 = load ptr, ptr %7, align 8
  %17 = load i32, ptr @hf_fmp_fmpFHandle, align 4
  %18 = load i32, ptr %9, align 4
  %19 = call i32 @dissect_rpc_data(ptr noundef %15, ptr noundef %16, i32 noundef %17, i32 noundef %18)
  store i32 %19, ptr %9, align 4
  %20 = load ptr, ptr %5, align 8
  %21 = load ptr, ptr %7, align 8
  %22 = load i32, ptr @hf_fmp_msgNum, align 4
  %23 = load i32, ptr %9, align 4
  %24 = call i32 @dissect_rpc_uint32(ptr noundef %20, ptr noundef %21, i32 noundef %22, i32 noundef %23)
  store i32 %24, ptr %9, align 4
  %25 = load ptr, ptr %5, align 8
  %26 = load ptr, ptr %7, align 8
  %27 = load i32, ptr @hf_fmp_firstLogBlk, align 4
  %28 = load i32, ptr %9, align 4
  %29 = call i32 @dissect_rpc_uint32(ptr noundef %25, ptr noundef %26, i32 noundef %27, i32 noundef %28)
  store i32 %29, ptr %9, align 4
  %30 = load ptr, ptr %5, align 8
  %31 = load ptr, ptr %7, align 8
  %32 = load i32, ptr @hf_fmp_numBlksReq, align 4
  %33 = load i32, ptr %9, align 4
  %34 = call i32 @dissect_rpc_uint32(ptr noundef %30, ptr noundef %31, i32 noundef %32, i32 noundef %33)
  store i32 %34, ptr %9, align 4
  %35 = load i32, ptr %9, align 4
  call void @llvm.lifetime.end.p0(i64 4, ptr %9) #3
  ret i32 %35
}